target datalayout = "e-m:e-p270:32:32-p271:32:32-p272:64:64-i64:64-i128:128-f80:128-n8:16:32:64-S128"
target triple = "x86_64-pc-linux-gnu"

%"class.cv::Range" = type { i32, i32 }
%"class.cv::ParallelLoopBody" = type { ptr }
%"struct.cv::hal::cpu_baseline::(anonymous namespace)::YUV422toRGB8Invoker.27" = type <{ %"class.cv::ParallelLoopBody", ptr, i64, ptr, i64, i32, [4 x i8] }>

@_ZTVN2cv16ParallelLoopBodyE = external unnamed_addr constant { [5 x ptr] }, align 8

; Function Attrs: mustprogress nounwind uwtable
define linkonce_odr hidden void @_ZN2cv16ParallelLoopBodyC2Ev(ptr noundef nonnull align 8 dereferenceable(8) %0) unnamed_addr #2 comdat align 2 {
  %2 = alloca ptr, align 8
  store ptr %0, ptr %2, align 8
  %3 = load ptr, ptr %2, align 8
  store ptr getelementptr inbounds inrange(-16, 24) ({ [5 x ptr] }, ptr @_ZTVN2cv16ParallelLoopBodyE, i32 0, i32 0, i32 2), ptr %3, align 8
  ret void
}

; Function Attrs: mustprogress nounwind uwtable
define internal void @_ZN2cv3hal12cpu_baseline12_GLOBAL__N_119YUV422toRGB8InvokerILi2ELi0ELi0ELi3EED2Ev(ptr noundef nonnull align 8 dereferenceable(44) %0) unnamed_addr #2 align 2 {
  %2 = alloca ptr, align 8
  store ptr %0, ptr %2, align 8
  %3 = load ptr, ptr %2, align 8
  call void @_ZN2cv16ParallelLoopBodyD2Ev(ptr noundef nonnull align 8 dereferenceable(8) %3) #10
  ret void
}

; Function Attrs: mustprogress nounwind uwtable
define linkonce_odr hidden void @_ZN2cv5RangeC2Eii(ptr noundef nonnull align 4 dereferenceable(8) %0, i32 noundef %1, i32 noundef %2) unnamed_addr #2 comdat align 2 {
  %4 = alloca ptr, align 8
  %5 = alloca i32, align 4
  %6 = alloca i32, align 4
  store ptr %0, ptr %4, align 8
  store i32 %1, ptr %5, align 4
  store i32 %2, ptr %6, align 4
  %7 = load ptr, ptr %4, align 8
  %8 = getelementptr inbounds %"class.cv::Range", ptr %7, i32 0, i32 0
  %9 = load i32, ptr %5, align 4
  store i32 %9, ptr %8, align 4
  %10 = getelementptr inbounds %"class.cv::Range", ptr %7, i32 0, i32 1
  %11 = load i32, ptr %6, align 4
  store i32 %11, ptr %10, align 4
  ret void
}

; Function Attrs: mustprogress nounwind uwtable
define internal void @_ZN2cv3hal12cpu_baseline12_GLOBAL__N_119YUV422toRGB8InvokerILi2ELi0ELi0ELi3EEC2EPhmPKhmi(ptr noundef nonnull align 8 dereferenceable(44) %0, ptr noundef %1, i64 noundef %2, ptr noundef %3, i64 noundef %4, i32 noundef %5) unnamed_addr #2 align 2 {
  %7 = alloca ptr, align 8
  %8 = alloca ptr, align 8
  %9 = alloca i64, align 8
  %10 = alloca ptr, align 8
  %11 = alloca i64, align 8
  %12 = alloca i32, align 4
  store ptr %0, ptr %7, align 8
  store ptr %1, ptr %8, align 8
  store i64 %2, ptr %9, align 8
  store ptr %3, ptr %10, align 8
  store i64 %4, ptr %11, align 8
  store i32 %5, ptr %12, align 4
  %13 = load ptr, ptr %7, align 8
  call void @_ZN2cv16ParallelLoopBodyC2Ev(ptr noundef nonnull align 8 dereferenceable(8) %13) #10
  store ptr getelementptr inbounds inrange(-16, 24) ({ [5 x ptr] }, ptr @_ZTVN2cv3hal12cpu_baseline12_GLOBAL__N_119YUV422toRGB8InvokerILi2ELi0ELi0ELi3EEE, i32 0, i32 0, i32 2), ptr %13, align 8
  %14 = getelementptr inbounds %"struct.cv::hal::cpu_baseline::(anonymous namespace)::YUV422toRGB8Invoker.27", ptr %13, i32 0, i32 1
  %15 = load ptr, ptr %8, align 8
  store ptr %15, ptr %14, align 8
  %16 = getelementptr inbounds %"struct.cv::hal::cpu_baseline::(anonymous namespace)::YUV422toRGB8Invoker.27", ptr %13, i32 0, i32 2
  %17 = load i64, ptr %9, align 8
  store i64 %17, ptr %16, align 8
  %18 = getelementptr inbounds %"struct.cv::hal::cpu_baseline::(anonymous namespace)::YUV422toRGB8Invoker.27", ptr %13, i32 0, i32 3
  %19 = load ptr, ptr %10, align 8
  store ptr %19, ptr %18, align 8
  %20 = getelementptr inbounds %"struct.cv::hal::cpu_baseline::(anonymous namespace)::YUV422toRGB8Invoker.27", ptr %13, i32 0, i32 4
  %21 = load i64, ptr %11, align 8
  store i64 %21, ptr %20, align 8
  %22 = getelementptr inbounds %"struct.cv::hal::cpu_baseline::(anonymous namespace)::YUV422toRGB8Invoker.27", ptr %13, i32 0, i32 5
  %23 = load i32, ptr %12, align 4
  store i32 %23, ptr %22, align 8
  ret void
}

; Function Attrs: mustprogress uwtable
define internal void @_ZN2cv3hal12cpu_baseline12_GLOBAL__N_114cvtYUV422toRGBILi2ELi0ELi0ELi3EEEvPhmPKhmii(ptr noundef %0, i64 noundef %1, ptr noundef %2, i64 noundef %3, i32 noundef %4, i32 noundef %5) #0 personality ptr @__gxx_personality_v0 {
  %7 = alloca ptr, align 8
  %8 = alloca i64, align 8
  %9 = alloca ptr, align 8
  %10 = alloca i64, align 8
  %11 = alloca i32, align 4
  %12 = alloca i32, align 4
  %13 = alloca %"struct.cv::hal::cpu_baseline::(anonymous namespace)::YUV422toRGB8Invoker.27", align 8
  %14 = alloca %"class.cv::Range", align 4
  %15 = alloca ptr, align 8
  %16 = alloca i32, align 4
  %17 = alloca %"class.cv::Range", align 4
  store ptr %0, ptr %7, align 8
  store i64 %1, ptr %8, align 8
  store ptr %2, ptr %9, align 8
  store i64 %3, ptr %10, align 8
  store i32 %4, ptr %11, align 4
  store i32 %5, ptr %12, align 4
  %18 = load ptr, ptr %7, align 8
  %19 = load i64, ptr %8, align 8
  %20 = load ptr, ptr %9, align 8
  %21 = load i64, ptr %10, align 8
  %22 = load i32, ptr %11, align 4
  call void @_ZN2cv3hal12cpu_baseline12_GLOBAL__N_119YUV422toRGB8InvokerILi2ELi0ELi0ELi3EEC2EPhmPKhmi(ptr noundef nonnull align 8 dereferenceable(44) %13, ptr noundef %18, i64 noundef %19, ptr noundef %20, i64 noundef %21, i32 noundef %22)
  %23 = load i32, ptr %11, align 4
  %24 = load i32, ptr %12, align 4
  %25 = mul nsw i32 %23, %24
  %26 = icmp sge i32 %25, 76800
  br i1 %26, label %27, label %35

27:                                               ; preds = %6
  %28 = load i32, ptr %12, align 4
  invoke void @_ZN2cv5RangeC2Eii(ptr noundef nonnull align 4 dereferenceable(8) %14, i32 noundef 0, i32 noundef %28)
          to label %29 unwind label %31

29:                                               ; preds = %27
  invoke void @_ZN2cv13parallel_for_ERKNS_5RangeERKNS_16ParallelLoopBodyEd(ptr noundef nonnull align 4 dereferenceable(8) %14, ptr noundef nonnull align 8 dereferenceable(8) %13, double noundef -1.000000e+00)
          to label %30 unwind label %31

30:                                               ; preds = %29
  br label %39

31:                                               ; preds = %37, %35, %29, %27
  %32 = landingpad { ptr, i32 }
          cleanup
  %33 = extractvalue { ptr, i32 } %32, 0
  store ptr %33, ptr %15, align 8
  %34 = extractvalue { ptr, i32 } %32, 1
  store i32 %34, ptr %16, align 4
  call void @_ZN2cv3hal12cpu_baseline12_GLOBAL__N_119YUV422toRGB8InvokerILi2ELi0ELi0ELi3EED2Ev(ptr noundef nonnull align 8 dereferenceable(44) %13) #10
  br label %40

35:                                               ; preds = %6
  %36 = load i32, ptr %12, align 4
  invoke void @_ZN2cv5RangeC2Eii(ptr noundef nonnull align 4 dereferenceable(8) %17, i32 noundef 0, i32 noundef %36)
          to label %37 unwind label %31

37:                                               ; preds = %35
  invoke void @_ZNK2cv3hal12cpu_baseline12_GLOBAL__N_119YUV422toRGB8InvokerILi2ELi0ELi0ELi3EEclERKNS_5RangeE(ptr noundef nonnull align 8 dereferenceable(44) %13, ptr noundef nonnull align 4 dereferenceable(8) %17)
          to label %38 unwind label %31

38:                                               ; preds = %37
  br label %39

39:                                               ; preds = %38, %30
  call void @_ZN2cv3hal12cpu_baseline12_GLOBAL__N_119YUV422toRGB8InvokerILi2ELi0ELi0ELi3EED2Ev(ptr noundef nonnull align 8 dereferenceable(44) %13) #10
  ret void

40:                                               ; preds = %31
  %41 = load ptr, ptr %15, align 8
  %42 = load i32, ptr %16, align 4
  %43 = insertvalue { ptr, i32 } poison, ptr %41, 0
  %44 = insertvalue { ptr, i32 } %43, i32 %42, 1
  resume { ptr, i32 } %44
}